target datalayout = "e-m:e-p270:32:32-p271:32:32-p272:64:64-i64:64-i128:128-f80:128-n8:16:32:64-S128"
target triple = "x86_64-unknown-linux-gnu"

%"class.icu_75::UnicodeString" = type { %"class.icu_75::Replaceable", %"union.icu_75::UnicodeString::StackBufferOrFields" }
%"class.icu_75::Replaceable" = type { %"class.icu_75::UObject" }
%"class.icu_75::UObject" = type { ptr }
%"union.icu_75::UnicodeString::StackBufferOrFields" = type { %struct.anon.0, [32 x i8] }
%struct.anon.0 = type { i16, i32, i32, ptr }

@_ZL14gNfdNormalizer = internal global ptr null, align 8
@_ZL13gInclusionSet = internal global ptr null, align 8
@_ZL15gRecommendedSet = internal global ptr null, align 8
@_ZZN12_GLOBAL__N_117initializeStaticsER10UErrorCodeE12inclusionPat = internal global ptr @.str, align 8
@_ZZN12_GLOBAL__N_117initializeStaticsER10UErrorCodeE14recommendedPat = internal global ptr @.str.2, align 8

; Function Attrs: mustprogress uwtable
define internal void @_ZN12_GLOBAL__N_117initializeStaticsER10UErrorCode(ptr noundef nonnull align 4 dereferenceable(4) %status) #0 personality ptr @__gxx_personality_v0 {
entry:
  %status.addr = alloca ptr, align 8
  %cleanup.cond = alloca i1, align 1
  %ref.tmp = alloca %"class.icu_75::UnicodeString", align 8
  %exn.slot = alloca ptr, align 8
  %ehselector.slot = alloca i32, align 4
  %cleanup.cond1 = alloca i1, align 1
  %saved-rvalue = alloca ptr, align 8
  %cleanup.cond14 = alloca i1, align 1
  %ref.tmp15 = alloca %"class.icu_75::UnicodeString", align 8
  %cleanup.cond18 = alloca i1, align 1
  store ptr %status, ptr %status.addr, align 8
  %call = call noundef ptr @_ZN6icu_757UMemorynwEm(i64 noundef 200) #6
  %new.isnull = icmp eq ptr %call, null
  store i1 false, ptr %cleanup.cond, align 1
  store i1 false, ptr %cleanup.cond1, align 1
  br i1 %new.isnull, label %new.cont, label %new.notnull

new.notnull:                                      ; preds = %entry
  store i1 true, ptr %cleanup.cond, align 1
  %0 = load ptr, ptr @_ZZN12_GLOBAL__N_117initializeStaticsER10UErrorCodeE12inclusionPat, align 8
  invoke void @_ZN6icu_7513UnicodeStringC1EPKDs(ptr noundef nonnull align 8 dereferenceable(64) %ref.tmp, ptr noundef %0)
          to label %invoke.cont unwind label %lpad

invoke.cont:                                      ; preds = %new.notnull
  store i1 true, ptr %cleanup.cond1, align 1
  %1 = load ptr, ptr %status.addr, align 8
  invoke void @_ZN6icu_7510UnicodeSetC1ERKNS_13UnicodeStringER10UErrorCode(ptr noundef nonnull align 8 dereferenceable(200) %call, ptr noundef nonnull align 8 dereferenceable(64) %ref.tmp, ptr noundef nonnull align 4 dereferenceable(4) %1)
          to label %invoke.cont3 unwind label %lpad2

invoke.cont3:                                     ; preds = %invoke.cont
  store i1 false, ptr %cleanup.cond, align 1
  br label %new.cont

new.cont:                                         ; preds = %invoke.cont3, %entry
  %2 = phi ptr [ %call, %invoke.cont3 ], [ null, %entry ]
  store ptr %2, ptr @_ZL13gInclusionSet, align 8
  %cleanup.is_active = load i1, ptr %cleanup.cond1, align 1
  br i1 %cleanup.is_active, label %cleanup.action, label %cleanup.done

cleanup.action:                                   ; preds = %new.cont
  call void @_ZN6icu_7513UnicodeStringD1Ev(ptr noundef nonnull align 8 dereferenceable(64) %ref.tmp) #6
  br label %cleanup.done

cleanup.done:                                     ; preds = %cleanup.action, %new.cont
  %3 = load ptr, ptr @_ZL13gInclusionSet, align 8
  %cmp = icmp eq ptr %3, null
  br i1 %cmp, label %if.then, label %if.end

if.then:                                          ; preds = %cleanup.done
  %4 = load ptr, ptr %status.addr, align 8
  store i32 7, ptr %4, align 4
  br label %return

lpad:                                             ; preds = %new.notnull
  %5 = landingpad { ptr, i32 }
          cleanup
  %6 = extractvalue { ptr, i32 } %5, 0
  store ptr %6, ptr %exn.slot, align 8
  %7 = extractvalue { ptr, i32 } %5, 1
  store i32 %7, ptr %ehselector.slot, align 4
  br label %ehcleanup

lpad2:                                            ; preds = %invoke.cont
  %8 = landingpad { ptr, i32 }
          cleanup
  %9 = extractvalue { ptr, i32 } %8, 0
  store ptr %9, ptr %exn.slot, align 8
  %10 = extractvalue { ptr, i32 } %8, 1
  store i32 %10, ptr %ehselector.slot, align 4
  %cleanup.is_active4 = load i1, ptr %cleanup.cond1, align 1
  br i1 %cleanup.is_active4, label %cleanup.action5, label %cleanup.done6

cleanup.action5:                                  ; preds = %lpad2
  call void @_ZN6icu_7513UnicodeStringD1Ev(ptr noundef nonnull align 8 dereferenceable(64) %ref.tmp) #6
  br label %cleanup.done6

cleanup.done6:                                    ; preds = %cleanup.action5, %lpad2
  br label %ehcleanup

ehcleanup:                                        ; preds = %cleanup.done6, %lpad
  %cleanup.is_active7 = load i1, ptr %cleanup.cond, align 1
  br i1 %cleanup.is_active7, label %cleanup.action8, label %cleanup.done9

cleanup.action8:                                  ; preds = %ehcleanup
  call void @_ZN6icu_757UMemorydlEPv(ptr noundef %call) #6
  br label %cleanup.done9

cleanup.done9:                                    ; preds = %cleanup.action8, %ehcleanup
  br label %eh.resume

if.end:                                           ; preds = %cleanup.done
  %11 = load ptr, ptr @_ZL13gInclusionSet, align 8
  %call10 = call noundef ptr @_ZN6icu_7510UnicodeSet6freezeEv(ptr noundef nonnull align 8 dereferenceable(200) %11)
  %call11 = call noundef ptr @_ZN6icu_757UMemorynwEm(i64 noundef 200) #6
  %new.isnull12 = icmp eq ptr %call11, null
  store i1 false, ptr %cleanup.cond14, align 1
  store i1 false, ptr %cleanup.cond18, align 1
  br i1 %new.isnull12, label %new.cont21, label %new.notnull13

new.notnull13:                                    ; preds = %if.end
  store ptr %call11, ptr %saved-rvalue, align 8
  store i1 true, ptr %cleanup.cond14, align 1
  %12 = load ptr, ptr @_ZZN12_GLOBAL__N_117initializeStaticsER10UErrorCodeE14recommendedPat, align 8
  invoke void @_ZN6icu_7513UnicodeStringC1EPKDs(ptr noundef nonnull align 8 dereferenceable(64) %ref.tmp15, ptr noundef %12)
          to label %invoke.cont17 unwind label %lpad16

invoke.cont17:                                    ; preds = %new.notnull13
  store i1 true, ptr %cleanup.cond18, align 1
  %13 = load ptr, ptr %status.addr, align 8
  invoke void @_ZN6icu_7510UnicodeSetC1ERKNS_13UnicodeStringER10UErrorCode(ptr noundef nonnull align 8 dereferenceable(200) %call11, ptr noundef nonnull align 8 dereferenceable(64) %ref.tmp15, ptr noundef nonnull align 4 dereferenceable(4) %13)
          to label %invoke.cont20 unwind label %lpad19

invoke.cont20:                                    ; preds = %invoke.cont17
  store i1 false, ptr %cleanup.cond14, align 1
  br label %new.cont21

new.cont21:                                       ; preds = %invoke.cont20, %if.end
  %14 = phi ptr [ %call11, %invoke.cont20 ], [ null, %if.end ]
  store ptr %14, ptr @_ZL15gRecommendedSet, align 8
  %cleanup.is_active22 = load i1, ptr %cleanup.cond18, align 1
  br i1 %cleanup.is_active22, label %cleanup.action23, label %cleanup.done24

cleanup.action23:                                 ; preds = %new.cont21
  call void @_ZN6icu_7513UnicodeStringD1Ev(ptr noundef nonnull align 8 dereferenceable(64) %ref.tmp15) #6
  br label %cleanup.done24

cleanup.done24:                                   ; preds = %cleanup.action23, %new.cont21
  %15 = load ptr, ptr @_ZL15gRecommendedSet, align 8
  %cmp33 = icmp eq ptr %15, null
  br i1 %cmp33, label %if.then34, label %if.end35

if.then34:                                        ; preds = %cleanup.done24
  %16 = load ptr, ptr %status.addr, align 8
  store i32 7, ptr %16, align 4
  %17 = load ptr, ptr @_ZL13gInclusionSet, align 8
  %isnull = icmp eq ptr %17, null
  br i1 %isnull, label %delete.end, label %delete.notnull

delete.notnull:                                   ; preds = %if.then34
  call void @_ZN6icu_7510UnicodeSetD1Ev(ptr noundef nonnull align 8 dereferenceable(200) %17) #6
  call void @_ZN6icu_757UMemorydlEPv(ptr noundef %17) #6
  br label %delete.end

delete.end:                                       ; preds = %delete.notnull, %if.then34
  br label %return

lpad16:                                           ; preds = %new.notnull13
  %18 = landingpad { ptr, i32 }
          cleanup
  %19 = extractvalue { ptr, i32 } %18, 0
  store ptr %19, ptr %exn.slot, align 8
  %20 = extractvalue { ptr, i32 } %18, 1
  store i32 %20, ptr %ehselector.slot, align 4
  br label %ehcleanup29

lpad19:                                           ; preds = %invoke.cont17
  %21 = landingpad { ptr, i32 }
          cleanup
  %22 = extractvalue { ptr, i32 } %21, 0
  store ptr %22, ptr %exn.slot, align 8
  %23 = extractvalue { ptr, i32 } %21, 1
  store i32 %23, ptr %ehselector.slot, align 4
  %cleanup.is_active26 = load i1, ptr %cleanup.cond18, align 1
  br i1 %cleanup.is_active26, label %cleanup.action27, label %cleanup.done28

cleanup.action27:                                 ; preds = %lpad19
  call void @_ZN6icu_7513UnicodeStringD1Ev(ptr noundef nonnull align 8 dereferenceable(64) %ref.tmp15) #6
  br label %cleanup.done28

cleanup.done28:                                   ; preds = %cleanup.action27, %lpad19
  br label %ehcleanup29

ehcleanup29:                                      ; preds = %cleanup.done28, %lpad16
  %cleanup.is_active30 = load i1, ptr %cleanup.cond14, align 1
  br i1 %cleanup.is_active30, label %cleanup.action31, label %cleanup.done32

cleanup.action31:                                 ; preds = %ehcleanup29
  %24 = load ptr, ptr %saved-rvalue, align 8
  call void @_ZN6icu_757UMemorydlEPv(ptr noundef %24) #6
  br label %cleanup.done32

cleanup.done32:                                   ; preds = %cleanup.action31, %ehcleanup29
  br label %eh.resume

if.end35:                                         ; preds = %cleanup.done24
  %25 = load ptr, ptr @_ZL15gRecommendedSet, align 8
  %call36 = call noundef ptr @_ZN6icu_7510UnicodeSet6freezeEv(ptr noundef nonnull align 8 dereferenceable(200) %25)
  %26 = load ptr, ptr %status.addr, align 8
  %call37 = call noundef ptr @_ZN6icu_7511Normalizer214getNFDInstanceER10UErrorCode(ptr noundef nonnull align 4 dereferenceable(4) %26)
  store ptr %call37, ptr @_ZL14gNfdNormalizer, align 8
  call void @ucln_i18n_registerCleanup_75(i32 noundef 3, ptr noundef @_ZN12_GLOBAL__N_114uspoof_cleanupEv)
  br label %return

return:                                           ; preds = %if.end35, %delete.end, %if.then
  ret void

eh.resume:                                        ; preds = %cleanup.done32, %cleanup.done9
  %exn = load ptr, ptr %exn.slot, align 8
  %sel = load i32, ptr %ehselector.slot, align 4
  %lpad.val = insertvalue { ptr, i32 } poison, ptr %exn, 0
  %lpad.val38 = insertvalue { ptr, i32 } %lpad.val, i32 %sel, 1
  resume { ptr, i32 } %lpad.val38
}