; Function Attrs: mustprogress uwtable
define internal fastcc void @_ZN12_GLOBAL__N_117initializeStaticsER10UErrorCode(ptr noundef nonnull align 4 dereferenceable(4) %status) unnamed_addr #0 personality ptr @__gxx_personality_v0 {
entry:
  %ref.tmp = alloca %"class.icu_75::UnicodeString", align 8
  %ref.tmp15 = alloca %"class.icu_75::UnicodeString", align 8
  %call = tail call noundef ptr @_ZN6icu_757UMemorynwEm(i64 noundef 200) #6
  %new.isnull.not = icmp eq ptr %call, null
  br i1 %new.isnull.not, label %cleanup.done.thread, label %new.notnull

new.notnull:                                      ; preds = %entry
  invoke void @_ZN6icu_7513UnicodeStringC1EPKDs(ptr noundef nonnull align 8 dereferenceable(64) %ref.tmp, ptr noundef nonnull @.str)
          to label %invoke.cont unwind label %lpad

invoke.cont:                                      ; preds = %new.notnull
  invoke void @_ZN6icu_7510UnicodeSetC1ERKNS_13UnicodeStringER10UErrorCode(ptr noundef nonnull align 8 dereferenceable(200) %call, ptr noundef nonnull align 8 dereferenceable(64) %ref.tmp, ptr noundef nonnull align 4 dereferenceable(4) %status)
          to label %cleanup.done unwind label %lpad2

cleanup.done.thread:                              ; preds = %entry
  store ptr null, ptr @_ZL13gInclusionSet, align 8
  br label %if.then

cleanup.done:                                     ; preds = %invoke.cont
  store ptr %call, ptr @_ZL13gInclusionSet, align 8
  call void @_ZN6icu_7513UnicodeStringD1Ev(ptr noundef nonnull align 8 dereferenceable(64) %ref.tmp) #6
  %.pr = load ptr, ptr @_ZL13gInclusionSet, align 8
  %cmp = icmp eq ptr %.pr, null
  br i1 %cmp, label %if.then, label %if.end

if.then:                                          ; preds = %cleanup.done.thread, %cleanup.done
  store i32 7, ptr %status, align 4
  br label %return

lpad:                                             ; preds = %new.notnull
  %0 = landingpad { ptr, i32 }
          cleanup
  br label %eh.resume

lpad2:                                            ; preds = %invoke.cont
  %1 = landingpad { ptr, i32 }
          cleanup
  call void @_ZN6icu_7513UnicodeStringD1Ev(ptr noundef nonnull align 8 dereferenceable(64) %ref.tmp) #6
  br label %eh.resume

if.end:                                           ; preds = %cleanup.done
  %call10 = call noundef ptr @_ZN6icu_7510UnicodeSet6freezeEv(ptr noundef nonnull align 8 dereferenceable(200) %.pr)
  %call11 = call noundef ptr @_ZN6icu_757UMemorynwEm(i64 noundef 200) #6
  %new.isnull12.not = icmp eq ptr %call11, null
  br i1 %new.isnull12.not, label %cleanup.done24.thread, label %new.notnull13

new.notnull13:                                    ; preds = %if.end
  invoke void @_ZN6icu_7513UnicodeStringC1EPKDs(ptr noundef nonnull align 8 dereferenceable(64) %ref.tmp15, ptr noundef nonnull @.str.2)
          to label %invoke.cont17 unwind label %lpad16

invoke.cont17:                                    ; preds = %new.notnull13
  invoke void @_ZN6icu_7510UnicodeSetC1ERKNS_13UnicodeStringER10UErrorCode(ptr noundef nonnull align 8 dereferenceable(200) %call11, ptr noundef nonnull align 8 dereferenceable(64) %ref.tmp15, ptr noundef nonnull align 4 dereferenceable(4) %status)
          to label %cleanup.done24 unwind label %lpad19

cleanup.done24.thread:                            ; preds = %if.end
  store ptr null, ptr @_ZL15gRecommendedSet, align 8
  br label %if.then34

cleanup.done24:                                   ; preds = %invoke.cont17
  store ptr %call11, ptr @_ZL15gRecommendedSet, align 8
  call void @_ZN6icu_7513UnicodeStringD1Ev(ptr noundef nonnull align 8 dereferenceable(64) %ref.tmp15) #6
  %.pr12 = load ptr, ptr @_ZL15gRecommendedSet, align 8
  %cmp33 = icmp eq ptr %.pr12, null
  br i1 %cmp33, label %if.then34, label %if.end35

if.then34:                                        ; preds = %cleanup.done24.thread, %cleanup.done24
  store i32 7, ptr %status, align 4
  %2 = load ptr, ptr @_ZL13gInclusionSet, align 8
  %isnull = icmp eq ptr %2, null
  br i1 %isnull, label %return, label %delete.notnull

delete.notnull:                                   ; preds = %if.then34
  call void @_ZN6icu_7510UnicodeSetD1Ev(ptr noundef nonnull align 8 dereferenceable(200) %2) #6
  call void @_ZN6icu_757UMemorydlEPv(ptr noundef nonnull %2) #6
  br label %return

lpad16:                                           ; preds = %new.notnull13
  %3 = landingpad { ptr, i32 }
          cleanup
  br label %eh.resume

lpad19:                                           ; preds = %invoke.cont17
  %4 = landingpad { ptr, i32 }
          cleanup
  call void @_ZN6icu_7513UnicodeStringD1Ev(ptr noundef nonnull align 8 dereferenceable(64) %ref.tmp15) #6
  br label %eh.resume

if.end35:                                         ; preds = %cleanup.done24
  %call36 = call noundef ptr @_ZN6icu_7510UnicodeSet6freezeEv(ptr noundef nonnull align 8 dereferenceable(200) %.pr12)
  %call37 = call noundef ptr @_ZN6icu_7511Normalizer214getNFDInstanceER10UErrorCode(ptr noundef nonnull align 4 dereferenceable(4) %status)
  store ptr %call37, ptr @_ZL14gNfdNormalizer, align 8
  call void @ucln_i18n_registerCleanup_75(i32 noundef 3, ptr noundef nonnull @_ZN12_GLOBAL__N_114uspoof_cleanupEv)
  br label %return

return:                                           ; preds = %if.then34, %delete.notnull, %if.end35, %if.then
  ret void

eh.resume:                                        ; preds = %lpad19, %lpad16, %lpad2, %lpad
  %call11.sink = phi ptr [ %call, %lpad ], [ %call, %lpad2 ], [ %call11, %lpad16 ], [ %call11, %lpad19 ]
  %.pn8.pn = phi { ptr, i32 } [ %0, %lpad ], [ %1, %lpad2 ], [ %3, %lpad16 ], [ %4, %lpad19 ]
  call void @_ZN6icu_757UMemorydlEPv(ptr noundef nonnull %call11.sink) #6
  resume { ptr, i32 } %.pn8.pn
}